target datalayout = "e-m:e-p270:32:32-p271:32:32-p272:64:64-i64:64-i128:128-f80:128-n8:16:32:64-S128"
target triple = "x86_64-unknown-linux-gnu"

%"class.std::__cxx11::basic_string" = type { %"struct.std::__cxx11::basic_string<char>::_Alloc_hider", i64, %union.anon.21 }
%"struct.std::__cxx11::basic_string<char>::_Alloc_hider" = type { ptr }
%union.anon.21 = type { i64, [8 x i8] }
%"class.OpenImageIO_v2_6_0::PSDInput" = type { %"class.OpenImageIO_v2_6_0::ImageInput", %"class.std::__cxx11::basic_string", i32, i32, %"class.std::vector.22", %"class.OpenImageIO_v2_6_0::ImageSpec", %"class.OpenImageIO_v2_6_0::ImageSpec", i8, %"struct.OpenImageIO_v2_6_0::TypeDesc", %"class.std::vector.27", %"class.std::vector.3", i16, [4 x float], i8, %"struct.OpenImageIO_v2_6_0::psd_pvt::FileHeader", %"struct.OpenImageIO_v2_6_0::psd_pvt::ColorModeData", %"struct.OpenImageIO_v2_6_0::PSDInput::LayerMaskInfo", %"class.std::vector.40", %"struct.OpenImageIO_v2_6_0::PSDInput::GlobalMaskInfo", [2 x i8], %"struct.OpenImageIO_v2_6_0::PSDInput::ImageDataSection", %"class.OpenImageIO_v2_6_0::ImageBuf" }
%"class.OpenImageIO_v2_6_0::ImageInput" = type { ptr, %"class.OpenImageIO_v2_6_0::ImageSpec", %"class.std::unique_ptr" }
%"class.std::unique_ptr" = type { %"struct.std::__uniq_ptr_data" }
%"struct.std::__uniq_ptr_data" = type { %"class.std::__uniq_ptr_impl" }
%"class.std::__uniq_ptr_impl" = type { %"class.std::tuple.13" }
%"class.std::tuple.13" = type { %"struct.std::_Tuple_impl.14" }
%"struct.std::_Tuple_impl.14" = type { %"struct.std::_Tuple_impl.15", %"struct.std::_Head_base.17" }
%"struct.std::_Tuple_impl.15" = type { %"struct.std::_Head_base.16" }
%"struct.std::_Head_base.16" = type { ptr }
%"struct.std::_Head_base.17" = type { ptr }
%"class.std::vector.22" = type { %"struct.std::_Vector_base.23" }
%"struct.std::_Vector_base.23" = type { %"struct.std::_Vector_base<OpenImageIO_v2_6_0::ImageSpec, std::allocator<OpenImageIO_v2_6_0::ImageSpec>>::_Vector_impl" }
%"struct.std::_Vector_base<OpenImageIO_v2_6_0::ImageSpec, std::allocator<OpenImageIO_v2_6_0::ImageSpec>>::_Vector_impl" = type { %"struct.std::_Vector_base<OpenImageIO_v2_6_0::ImageSpec, std::allocator<OpenImageIO_v2_6_0::ImageSpec>>::_Vector_impl_data" }
%"struct.std::_Vector_base<OpenImageIO_v2_6_0::ImageSpec, std::allocator<OpenImageIO_v2_6_0::ImageSpec>>::_Vector_impl_data" = type { ptr, ptr, ptr }
%"class.OpenImageIO_v2_6_0::ImageSpec" = type { i32, i32, i32, i32, i32, i32, i32, i32, i32, i32, i32, i32, i32, i32, i32, i32, %"struct.OpenImageIO_v2_6_0::TypeDesc", %"class.std::vector", %"class.std::vector.3", i32, i32, i8, %"class.OpenImageIO_v2_6_0::ParamValueList" }
%"class.std::vector" = type { %"struct.std::_Vector_base" }
%"struct.std::_Vector_base" = type { %"struct.std::_Vector_base<OpenImageIO_v2_6_0::TypeDesc, std::allocator<OpenImageIO_v2_6_0::TypeDesc>>::_Vector_impl" }
%"struct.std::_Vector_base<OpenImageIO_v2_6_0::TypeDesc, std::allocator<OpenImageIO_v2_6_0::TypeDesc>>::_Vector_impl" = type { %"struct.std::_Vector_base<OpenImageIO_v2_6_0::TypeDesc, std::allocator<OpenImageIO_v2_6_0::TypeDesc>>::_Vector_impl_data" }
%"struct.std::_Vector_base<OpenImageIO_v2_6_0::TypeDesc, std::allocator<OpenImageIO_v2_6_0::TypeDesc>>::_Vector_impl_data" = type { ptr, ptr, ptr }
%"class.OpenImageIO_v2_6_0::ParamValueList" = type { %"class.std::vector.8" }
%"class.std::vector.8" = type { %"struct.std::_Vector_base.9" }
%"struct.std::_Vector_base.9" = type { %"struct.std::_Vector_base<OpenImageIO_v2_6_0::ParamValue, std::allocator<OpenImageIO_v2_6_0::ParamValue>>::_Vector_impl" }
%"struct.std::_Vector_base<OpenImageIO_v2_6_0::ParamValue, std::allocator<OpenImageIO_v2_6_0::ParamValue>>::_Vector_impl" = type { %"struct.std::_Vector_base<OpenImageIO_v2_6_0::ParamValue, std::allocator<OpenImageIO_v2_6_0::ParamValue>>::_Vector_impl_data" }
%"struct.std::_Vector_base<OpenImageIO_v2_6_0::ParamValue, std::allocator<OpenImageIO_v2_6_0::ParamValue>>::_Vector_impl_data" = type { ptr, ptr, ptr }
%"struct.OpenImageIO_v2_6_0::TypeDesc" = type { i8, i8, i8, i8, i32 }
%"class.std::vector.27" = type { %"struct.std::_Vector_base.28" }
%"struct.std::_Vector_base.28" = type { %"struct.std::_Vector_base<std::vector<OpenImageIO_v2_6_0::PSDInput::ChannelInfo *>, std::allocator<std::vector<OpenImageIO_v2_6_0::PSDInput::ChannelInfo *>>>::_Vector_impl" }
%"struct.std::_Vector_base<std::vector<OpenImageIO_v2_6_0::PSDInput::ChannelInfo *>, std::allocator<std::vector<OpenImageIO_v2_6_0::PSDInput::ChannelInfo *>>>::_Vector_impl" = type { %"struct.std::_Vector_base<std::vector<OpenImageIO_v2_6_0::PSDInput::ChannelInfo *>, std::allocator<std::vector<OpenImageIO_v2_6_0::PSDInput::ChannelInfo *>>>::_Vector_impl_data" }
%"struct.std::_Vector_base<std::vector<OpenImageIO_v2_6_0::PSDInput::ChannelInfo *>, std::allocator<std::vector<OpenImageIO_v2_6_0::PSDInput::ChannelInfo *>>>::_Vector_impl_data" = type { ptr, ptr, ptr }
%"class.std::vector.3" = type { %"struct.std::_Vector_base.4" }
%"struct.std::_Vector_base.4" = type { %"struct.std::_Vector_base<std::__cxx11::basic_string<char>, std::allocator<std::__cxx11::basic_string<char>>>::_Vector_impl" }
%"struct.std::_Vector_base<std::__cxx11::basic_string<char>, std::allocator<std::__cxx11::basic_string<char>>>::_Vector_impl" = type { %"struct.std::_Vector_base<std::__cxx11::basic_string<char>, std::allocator<std::__cxx11::basic_string<char>>>::_Vector_impl_data" }
%"struct.std::_Vector_base<std::__cxx11::basic_string<char>, std::allocator<std::__cxx11::basic_string<char>>>::_Vector_impl_data" = type { ptr, ptr, ptr }
%"struct.OpenImageIO_v2_6_0::psd_pvt::FileHeader" = type { [4 x i8], i16, i16, i32, i32, i16, i16 }
%"struct.OpenImageIO_v2_6_0::psd_pvt::ColorModeData" = type { i32, %"class.std::unique_ptr.32" }
%"class.std::unique_ptr.32" = type { %"struct.std::__uniq_ptr_data.33" }
%"struct.std::__uniq_ptr_data.33" = type { %"class.std::__uniq_ptr_impl.34" }
%"class.std::__uniq_ptr_impl.34" = type { %"class.std::tuple.35" }
%"class.std::tuple.35" = type { %"struct.std::_Tuple_impl.36" }
%"struct.std::_Tuple_impl.36" = type { %"struct.std::_Head_base.39" }
%"struct.std::_Head_base.39" = type { ptr }
%"struct.OpenImageIO_v2_6_0::PSDInput::LayerMaskInfo" = type { i64, i64, i64, %"struct.OpenImageIO_v2_6_0::PSDInput::LayerMaskInfo::LayerInfo" }
%"struct.OpenImageIO_v2_6_0::PSDInput::LayerMaskInfo::LayerInfo" = type { i64, i16, i64, i64 }
%"class.std::vector.40" = type { %"struct.std::_Vector_base.41" }
%"struct.std::_Vector_base.41" = type { %"struct.std::_Vector_base<OpenImageIO_v2_6_0::PSDInput::Layer, std::allocator<OpenImageIO_v2_6_0::PSDInput::Layer>>::_Vector_impl" }
%"struct.std::_Vector_base<OpenImageIO_v2_6_0::PSDInput::Layer, std::allocator<OpenImageIO_v2_6_0::PSDInput::Layer>>::_Vector_impl" = type { %"struct.std::_Vector_base<OpenImageIO_v2_6_0::PSDInput::Layer, std::allocator<OpenImageIO_v2_6_0::PSDInput::Layer>>::_Vector_impl_data" }
%"struct.std::_Vector_base<OpenImageIO_v2_6_0::PSDInput::Layer, std::allocator<OpenImageIO_v2_6_0::PSDInput::Layer>>::_Vector_impl_data" = type { ptr, ptr, ptr }
%"struct.OpenImageIO_v2_6_0::PSDInput::GlobalMaskInfo" = type { i16, [4 x i16], i16, i8 }
%"struct.OpenImageIO_v2_6_0::PSDInput::ImageDataSection" = type <{ %"class.std::vector.45", i8, [7 x i8] }>
%"class.std::vector.45" = type { %"struct.std::_Vector_base.46" }
%"struct.std::_Vector_base.46" = type { %"struct.std::_Vector_base<OpenImageIO_v2_6_0::PSDInput::ChannelInfo, std::allocator<OpenImageIO_v2_6_0::PSDInput::ChannelInfo>>::_Vector_impl" }
%"struct.std::_Vector_base<OpenImageIO_v2_6_0::PSDInput::ChannelInfo, std::allocator<OpenImageIO_v2_6_0::PSDInput::ChannelInfo>>::_Vector_impl" = type { %"struct.std::_Vector_base<OpenImageIO_v2_6_0::PSDInput::ChannelInfo, std::allocator<OpenImageIO_v2_6_0::PSDInput::ChannelInfo>>::_Vector_impl_data" }
%"struct.std::_Vector_base<OpenImageIO_v2_6_0::PSDInput::ChannelInfo, std::allocator<OpenImageIO_v2_6_0::PSDInput::ChannelInfo>>::_Vector_impl_data" = type { ptr, ptr, ptr }
%"class.OpenImageIO_v2_6_0::ImageBuf" = type { %"class.std::unique_ptr.50" }
%"class.std::unique_ptr.50" = type { %"struct.std::__uniq_ptr_data.51" }
%"struct.std::__uniq_ptr_data.51" = type { %"class.std::__uniq_ptr_impl.52" }
%"class.std::__uniq_ptr_impl.52" = type { %"class.std::tuple.53" }
%"class.std::tuple.53" = type { %"struct.std::_Tuple_impl.54" }
%"struct.std::_Tuple_impl.54" = type { %"struct.std::_Tuple_impl.55", %"struct.std::_Head_base.57" }
%"struct.std::_Tuple_impl.55" = type { %"struct.std::_Head_base.56" }
%"struct.std::_Head_base.56" = type { ptr }
%"struct.std::_Head_base.57" = type { ptr }

; Function Attrs: mustprogress uwtable
define linkonce_odr noundef nonnull align 8 dereferenceable(24) ptr @_ZN18OpenImageIO_v2_6_014ParamValueListaSERKS0_(ptr noundef nonnull align 8 dereferenceable(24) %this, ptr noundef nonnull align 8 dereferenceable(24) %0) #6 comdat align 2 {
entry:
  %this.addr = alloca ptr, align 8
  %.addr = alloca ptr, align 8
  store ptr %this, ptr %this.addr, align 8
  store ptr %0, ptr %.addr, align 8
  %this1 = load ptr, ptr %this.addr, align 8
  %1 = load ptr, ptr %.addr, align 8
  %call = call noundef nonnull align 8 dereferenceable(24) ptr @_ZNSt6vectorIN18OpenImageIO_v2_6_010ParamValueESaIS1_EEaSERKS3_(ptr noundef nonnull align 8 dereferenceable(24) %this1, ptr noundef nonnull align 8 dereferenceable(24) %1)
  ret ptr %this1
}

; Function Attrs: mustprogress uwtable
define linkonce_odr noundef nonnull align 8 dereferenceable(160) ptr @_ZN18OpenImageIO_v2_6_09ImageSpecaSERKS0_(ptr noundef nonnull align 8 dereferenceable(160) %this, ptr noundef nonnull align 8 dereferenceable(160) %0) #6 comdat align 2 {
entry:
  %this.addr = alloca ptr, align 8
  %.addr = alloca ptr, align 8
  store ptr %this, ptr %this.addr, align 8
  store ptr %0, ptr %.addr, align 8
  %this1 = load ptr, ptr %this.addr, align 8
  %x = getelementptr inbounds %"class.OpenImageIO_v2_6_0::ImageSpec", ptr %this1, i32 0, i32 0
  %1 = load ptr, ptr %.addr, align 8
  %x2 = getelementptr inbounds %"class.OpenImageIO_v2_6_0::ImageSpec", ptr %1, i32 0, i32 0
  call void @llvm.memcpy.p0.p0.i64(ptr align 8 %x, ptr align 8 %x2, i64 72, i1 false)
  %channelformats = getelementptr inbounds %"class.OpenImageIO_v2_6_0::ImageSpec", ptr %this1, i32 0, i32 17
  %2 = load ptr, ptr %.addr, align 8
  %channelformats3 = getelementptr inbounds %"class.OpenImageIO_v2_6_0::ImageSpec", ptr %2, i32 0, i32 17
  %call = call noundef nonnull align 8 dereferenceable(24) ptr @_ZNSt6vectorIN18OpenImageIO_v2_6_08TypeDescESaIS1_EEaSERKS3_(ptr noundef nonnull align 8 dereferenceable(24) %channelformats, ptr noundef nonnull align 8 dereferenceable(24) %channelformats3)
  %channelnames = getelementptr inbounds %"class.OpenImageIO_v2_6_0::ImageSpec", ptr %this1, i32 0, i32 18
  %3 = load ptr, ptr %.addr, align 8
  %channelnames4 = getelementptr inbounds %"class.OpenImageIO_v2_6_0::ImageSpec", ptr %3, i32 0, i32 18
  %call5 = call noundef nonnull align 8 dereferenceable(24) ptr @_ZNSt6vectorINSt7__cxx1112basic_stringIcSt11char_traitsIcESaIcEEESaIS5_EEaSERKS7_(ptr noundef nonnull align 8 dereferenceable(24) %channelnames, ptr noundef nonnull align 8 dereferenceable(24) %channelnames4)
  %alpha_channel = getelementptr inbounds %"class.OpenImageIO_v2_6_0::ImageSpec", ptr %this1, i32 0, i32 19
  %4 = load ptr, ptr %.addr, align 8
  %alpha_channel6 = getelementptr inbounds %"class.OpenImageIO_v2_6_0::ImageSpec", ptr %4, i32 0, i32 19
  call void @llvm.memcpy.p0.p0.i64(ptr align 8 %alpha_channel, ptr align 8 %alpha_channel6, i64 9, i1 false)
  %extra_attribs = getelementptr inbounds %"class.OpenImageIO_v2_6_0::ImageSpec", ptr %this1, i32 0, i32 22
  %5 = load ptr, ptr %.addr, align 8
  %extra_attribs7 = getelementptr inbounds %"class.OpenImageIO_v2_6_0::ImageSpec", ptr %5, i32 0, i32 22
  %call8 = call noundef nonnull align 8 dereferenceable(24) ptr @_ZN18OpenImageIO_v2_6_014ParamValueListaSERKS0_(ptr noundef nonnull align 8 dereferenceable(24) %extra_attribs, ptr noundef nonnull align 8 dereferenceable(24) %extra_attribs7)
  ret ptr %this1
}

; Function Attrs: mustprogress nounwind uwtable
define linkonce_odr noundef nonnull align 8 dereferenceable(160) ptr @_ZNSt6vectorIN18OpenImageIO_v2_6_09ImageSpecESaIS1_EEixEm(ptr noundef nonnull align 8 dereferenceable(24) %this, i64 noundef %__n) #4 comdat align 2 {
entry:
  %this.addr = alloca ptr, align 8
  %__n.addr = alloca i64, align 8
  store ptr %this, ptr %this.addr, align 8
  store i64 %__n, ptr %__n.addr, align 8
  %this1 = load ptr, ptr %this.addr, align 8
  %_M_impl = getelementptr inbounds %"struct.std::_Vector_base.23", ptr %this1, i32 0, i32 0
  %_M_start = getelementptr inbounds %"struct.std::_Vector_base<OpenImageIO_v2_6_0::ImageSpec, std::allocator<OpenImageIO_v2_6_0::ImageSpec>>::_Vector_impl_data", ptr %_M_impl, i32 0, i32 0
  %0 = load ptr, ptr %_M_start, align 8
  %1 = load i64, ptr %__n.addr, align 8
  %add.ptr = getelementptr inbounds %"class.OpenImageIO_v2_6_0::ImageSpec", ptr %0, i64 %1
  ret ptr %add.ptr
}

; Function Attrs: mustprogress uwtable
define hidden noundef zeroext i1 @_ZN18OpenImageIO_v2_6_08PSDInput13seek_subimageEii(ptr noundef nonnull align 8 dereferenceable(840) %this, i32 noundef %subimage, i32 noundef %miplevel) unnamed_addr #6 align 2 {
entry:
  %retval = alloca i1, align 1
  %this.addr = alloca ptr, align 8
  %subimage.addr = alloca i32, align 4
  %miplevel.addr = alloca i32, align 4
  store ptr %this, ptr %this.addr, align 8
  store i32 %subimage, ptr %subimage.addr, align 4
  store i32 %miplevel, ptr %miplevel.addr, align 4
  %this1 = load ptr, ptr %this.addr, align 8
  %0 = load i32, ptr %miplevel.addr, align 4
  %cmp = icmp ne i32 %0, 0
  br i1 %cmp, label %if.then, label %if.end

if.then:                                          ; preds = %entry
  store i1 false, ptr %retval, align 1
  br label %return

if.end:                                           ; preds = %entry
  %1 = load i32, ptr %subimage.addr, align 4
  %m_subimage = getelementptr inbounds %"class.OpenImageIO_v2_6_0::PSDInput", ptr %this1, i32 0, i32 2
  %2 = load i32, ptr %m_subimage, align 8
  %cmp2 = icmp eq i32 %1, %2
  br i1 %cmp2, label %if.then3, label %if.end4

if.then3:                                         ; preds = %if.end
  store i1 true, ptr %retval, align 1
  br label %return

if.end4:                                          ; preds = %if.end
  %3 = load i32, ptr %subimage.addr, align 4
  %cmp5 = icmp slt i32 %3, 0
  br i1 %cmp5, label %if.then7, label %lor.lhs.false

lor.lhs.false:                                    ; preds = %if.end4
  %4 = load i32, ptr %subimage.addr, align 4
  %m_subimage_count = getelementptr inbounds %"class.OpenImageIO_v2_6_0::PSDInput", ptr %this1, i32 0, i32 3
  %5 = load i32, ptr %m_subimage_count, align 4
  %cmp6 = icmp sge i32 %4, %5
  br i1 %cmp6, label %if.then7, label %if.end8

if.then7:                                         ; preds = %lor.lhs.false, %if.end4
  store i1 false, ptr %retval, align 1
  br label %return

if.end8:                                          ; preds = %lor.lhs.false
  %6 = load i32, ptr %subimage.addr, align 4
  %m_subimage9 = getelementptr inbounds %"class.OpenImageIO_v2_6_0::PSDInput", ptr %this1, i32 0, i32 2
  store i32 %6, ptr %m_subimage9, align 8
  %m_specs = getelementptr inbounds %"class.OpenImageIO_v2_6_0::PSDInput", ptr %this1, i32 0, i32 4
  %7 = load i32, ptr %subimage.addr, align 4
  %conv = sext i32 %7 to i64
  %call = call noundef nonnull align 8 dereferenceable(160) ptr @_ZNSt6vectorIN18OpenImageIO_v2_6_09ImageSpecESaIS1_EEixEm(ptr noundef nonnull align 8 dereferenceable(24) %m_specs, i64 noundef %conv) #3
  %m_spec = getelementptr inbounds %"class.OpenImageIO_v2_6_0::ImageInput", ptr %this1, i32 0, i32 1
  %call10 = call noundef nonnull align 8 dereferenceable(160) ptr @_ZN18OpenImageIO_v2_6_09ImageSpecaSERKS0_(ptr noundef nonnull align 8 dereferenceable(160) %m_spec, ptr noundef nonnull align 8 dereferenceable(160) %call)
  store i1 true, ptr %retval, align 1
  br label %return

return:                                           ; preds = %if.end8, %if.then7, %if.then3, %if.then
  %8 = load i1, ptr %retval, align 1
  ret i1 %8
}