; Function Attrs: mustprogress uwtable
define hidden noundef zeroext i1 @_ZN18OpenImageIO_v2_6_08PSDInput13seek_subimageEii(ptr noundef nonnull align 8 dereferenceable(840) %this, i32 noundef %subimage, i32 noundef %miplevel) unnamed_addr #5 align 2 {
entry:
  %cmp.not = icmp eq i32 %miplevel, 0
  br i1 %cmp.not, label %if.end, label %return

if.end:                                           ; preds = %entry
  %m_subimage = getelementptr inbounds i8, ptr %this, i64 216
  %0 = load i32, ptr %m_subimage, align 8
  %cmp2 = icmp eq i32 %0, %subimage
  br i1 %cmp2, label %return, label %if.end4

if.end4:                                          ; preds = %if.end
  %cmp5 = icmp sgt i32 %subimage, -1
  %m_subimage_count = getelementptr inbounds i8, ptr %this, i64 220
  %1 = load i32, ptr %m_subimage_count, align 4
  %cmp6.not = icmp sgt i32 %1, %subimage
  %or.cond = select i1 %cmp5, i1 %cmp6.not, i1 false
  br i1 %or.cond, label %if.end8, label %return

if.end8:                                          ; preds = %if.end4
  store i32 %subimage, ptr %m_subimage, align 8
  %m_specs = getelementptr inbounds i8, ptr %this, i64 224
  %conv = zext nneg i32 %subimage to i64
  %2 = load ptr, ptr %m_specs, align 8
  %add.ptr.i = getelementptr inbounds %"class.OpenImageIO_v2_6_0::ImageSpec", ptr %2, i64 %conv
  %m_spec = getelementptr inbounds i8, ptr %this, i64 8
  tail call void @llvm.memcpy.p0.p0.i64(ptr noundef nonnull align 8 dereferenceable(72) %m_spec, ptr noundef nonnull align 8 dereferenceable(72) %add.ptr.i, i64 72, i1 false)
  %channelformats.i = getelementptr inbounds i8, ptr %this, i64 80
  %channelformats3.i = getelementptr inbounds i8, ptr %add.ptr.i, i64 72
  %call.i = tail call noundef nonnull align 8 dereferenceable(24) ptr @_ZNSt6vectorIN18OpenImageIO_v2_6_08TypeDescESaIS1_EEaSERKS3_(ptr noundef nonnull align 8 dereferenceable(24) %channelformats.i, ptr noundef nonnull align 8 dereferenceable(24) %channelformats3.i)
  %channelnames.i = getelementptr inbounds i8, ptr %this, i64 104
  %channelnames4.i = getelementptr inbounds i8, ptr %add.ptr.i, i64 96
  %call5.i = tail call noundef nonnull align 8 dereferenceable(24) ptr @_ZNSt6vectorINSt7__cxx1112basic_stringIcSt11char_traitsIcESaIcEEESaIS5_EEaSERKS7_(ptr noundef nonnull align 8 dereferenceable(24) %channelnames.i, ptr noundef nonnull align 8 dereferenceable(24) %channelnames4.i)
  %alpha_channel.i = getelementptr inbounds i8, ptr %this, i64 128
  %alpha_channel6.i = getelementptr inbounds i8, ptr %add.ptr.i, i64 120
  tail call void @llvm.memcpy.p0.p0.i64(ptr noundef nonnull align 8 dereferenceable(9) %alpha_channel.i, ptr noundef nonnull align 8 dereferenceable(9) %alpha_channel6.i, i64 9, i1 false)
  %extra_attribs.i = getelementptr inbounds i8, ptr %this, i64 144
  %extra_attribs7.i = getelementptr inbounds i8, ptr %add.ptr.i, i64 136
  %call.i.i = tail call noundef nonnull align 8 dereferenceable(24) ptr @_ZNSt6vectorIN18OpenImageIO_v2_6_010ParamValueESaIS1_EEaSERKS3_(ptr noundef nonnull align 8 dereferenceable(24) %extra_attribs.i, ptr noundef nonnull align 8 dereferenceable(24) %extra_attribs7.i)
  br label %return

return:                                           ; preds = %if.end4, %if.end, %entry, %if.end8
  %retval.0 = phi i1 [ true, %if.end8 ], [ false, %entry ], [ true, %if.end ], [ false, %if.end4 ]
  ret i1 %retval.0
}